target datalayout = "e-m:e-p270:32:32-p271:32:32-p272:64:64-i64:64-i128:128-f80:128-n8:16:32:64-S128"
target triple = "x86_64-pc-linux-gnu"

%struct.VVCLocalContext = type { i8, i8, i8, i8, i32, i32, [4 x i8], [3276800 x i8], [16384 x i16], [16384 x i16], [16384 x i16], [32768 x i8], [332800 x i8], [368640 x i8], [368640 x i8], [17424 x i32], %struct.anon, %struct.anon.0, ptr, [2 x [1024 x %struct.ReconstructedArea]], [2 x i32], %struct.NeighbourAvailable, i32, ptr, ptr, ptr, ptr }
%struct.anon = type { i32, i8, i32, i32, i32, [3 x i32], i32, i32, i32, i32, i32, i32 }
%struct.anon.0 = type { i32, i32, i32 }
%struct.ReconstructedArea = type { i32, i32, i32, i32 }
%struct.NeighbourAvailable = type { i32, i32, i32, i32, i32 }
%struct.EntryPoint = type { i8, [3 x i32], [3 x %struct.Palette], [378 x %struct.VVCCabacState], %struct.CABACContext, i32, i32, i8, [7 x i8], [5 x %struct.MvField], i32, [4 x i8], [5 x %struct.MvField], i32 }
%struct.Palette = type { i8, [63 x i16] }
%struct.VVCCabacState = type { [2 x i16], [2 x i8] }
%struct.CABACContext = type { i32, i32, ptr, ptr, ptr }
%struct.MvField = type { [2 x %struct.Mv], [2 x i8], i8, i8, i8, i8 }
%struct.Mv = type { i32, i32 }

@ff_h264_cabac_tables = external constant [1343 x i8], align 16

; Function Attrs: nounwind uwtable
define internal void @vvc_refill2(ptr noundef %0) #0 {
  %2 = alloca ptr, align 8
  %3 = alloca i32, align 4
  %4 = alloca i32, align 4
  store ptr %0, ptr %2, align 8, !tbaa !104
  call void @llvm.lifetime.start.p0(i64 4, ptr %3) #9
  call void @llvm.lifetime.start.p0(i64 4, ptr %4) #9
  %5 = load ptr, ptr %2, align 8, !tbaa !104
  %6 = getelementptr inbounds nuw %struct.CABACContext, ptr %5, i32 0, i32 0
  %7 = load i32, ptr %6, align 8, !tbaa !108
  %8 = load ptr, ptr %2, align 8, !tbaa !104
  %9 = getelementptr inbounds nuw %struct.CABACContext, ptr %8, i32 0, i32 0
  %10 = load i32, ptr %9, align 8, !tbaa !108
  %11 = sub nsw i32 %10, 1
  %12 = xor i32 %7, %11
  store i32 %12, ptr %4, align 4, !tbaa !9
  %13 = load i32, ptr %4, align 4, !tbaa !9
  %14 = lshr i32 %13, 15
  %15 = zext i32 %14 to i64
  %16 = getelementptr inbounds nuw i8, ptr @ff_h264_cabac_tables, i64 %15
  %17 = load i8, ptr %16, align 1, !tbaa !101
  %18 = zext i8 %17 to i32
  %19 = sub nsw i32 7, %18
  store i32 %19, ptr %3, align 4, !tbaa !9
  store i32 -65535, ptr %4, align 4, !tbaa !9
  %20 = load ptr, ptr %2, align 8, !tbaa !104
  %21 = getelementptr inbounds nuw %struct.CABACContext, ptr %20, i32 0, i32 3
  %22 = load ptr, ptr %21, align 8, !tbaa !209
  %23 = getelementptr inbounds i8, ptr %22, i64 0
  %24 = load i8, ptr %23, align 1, !tbaa !101
  %25 = zext i8 %24 to i32
  %26 = shl i32 %25, 9
  %27 = load ptr, ptr %2, align 8, !tbaa !104
  %28 = getelementptr inbounds nuw %struct.CABACContext, ptr %27, i32 0, i32 3
  %29 = load ptr, ptr %28, align 8, !tbaa !209
  %30 = getelementptr inbounds i8, ptr %29, i64 1
  %31 = load i8, ptr %30, align 1, !tbaa !101
  %32 = zext i8 %31 to i32
  %33 = shl i32 %32, 1
  %34 = add nsw i32 %26, %33
  %35 = load i32, ptr %4, align 4, !tbaa !9
  %36 = add i32 %35, %34
  store i32 %36, ptr %4, align 4, !tbaa !9
  %37 = load i32, ptr %4, align 4, !tbaa !9
  %38 = load i32, ptr %3, align 4, !tbaa !9
  %39 = shl i32 %37, %38
  %40 = load ptr, ptr %2, align 8, !tbaa !104
  %41 = getelementptr inbounds nuw %struct.CABACContext, ptr %40, i32 0, i32 0
  %42 = load i32, ptr %41, align 8, !tbaa !108
  %43 = add i32 %42, %39
  store i32 %43, ptr %41, align 8, !tbaa !108
  %44 = load ptr, ptr %2, align 8, !tbaa !104
  %45 = getelementptr inbounds nuw %struct.CABACContext, ptr %44, i32 0, i32 3
  %46 = load ptr, ptr %45, align 8, !tbaa !209
  %47 = load ptr, ptr %2, align 8, !tbaa !104
  %48 = getelementptr inbounds nuw %struct.CABACContext, ptr %47, i32 0, i32 4
  %49 = load ptr, ptr %48, align 8, !tbaa !211
  %50 = icmp ult ptr %46, %49
  br i1 %50, label %51, label %56

51:                                               ; preds = %1
  %52 = load ptr, ptr %2, align 8, !tbaa !104
  %53 = getelementptr inbounds nuw %struct.CABACContext, ptr %52, i32 0, i32 3
  %54 = load ptr, ptr %53, align 8, !tbaa !209
  %55 = getelementptr inbounds i8, ptr %54, i64 2
  store ptr %55, ptr %53, align 8, !tbaa !209
  br label %56

56:                                               ; preds = %51, %1
  call void @llvm.lifetime.end.p0(i64 4, ptr %4) #9
  call void @llvm.lifetime.end.p0(i64 4, ptr %3) #9
  ret void
}

; Function Attrs: inlinehint nounwind uwtable
define internal i32 @vvc_get_cabac(ptr noundef %0, ptr noundef %1, i32 noundef %2) #2 {
  %4 = alloca ptr, align 8
  %5 = alloca ptr, align 8
  %6 = alloca i32, align 4
  %7 = alloca ptr, align 8
  %8 = alloca i32, align 4
  %9 = alloca i32, align 4
  %10 = alloca i32, align 4
  %11 = alloca i32, align 4
  %12 = alloca i32, align 4
  %13 = alloca i32, align 4
  store ptr %0, ptr %4, align 8, !tbaa !104
  store ptr %1, ptr %5, align 8, !tbaa !99
  store i32 %2, ptr %6, align 4, !tbaa !9
  call void @llvm.lifetime.start.p0(i64 8, ptr %7) #9
  %14 = load ptr, ptr %5, align 8, !tbaa !99
  %15 = load i32, ptr %6, align 4, !tbaa !9
  %16 = sext i32 %15 to i64
  %17 = getelementptr inbounds %struct.VVCCabacState, ptr %14, i64 %16
  store ptr %17, ptr %7, align 8, !tbaa !99
  call void @llvm.lifetime.start.p0(i64 4, ptr %8) #9
  %18 = load ptr, ptr %4, align 8, !tbaa !104
  %19 = getelementptr inbounds nuw %struct.CABACContext, ptr %18, i32 0, i32 1
  %20 = load i32, ptr %19, align 4, !tbaa !106
  %21 = ashr i32 %20, 5
  store i32 %21, ptr %8, align 4, !tbaa !9
  call void @llvm.lifetime.start.p0(i64 4, ptr %9) #9
  %22 = load ptr, ptr %7, align 8, !tbaa !99
  %23 = getelementptr inbounds nuw %struct.VVCCabacState, ptr %22, i32 0, i32 0
  %24 = getelementptr inbounds [2 x i16], ptr %23, i64 0, i64 1
  %25 = load i16, ptr %24, align 2, !tbaa !62
  %26 = zext i16 %25 to i32
  %27 = load ptr, ptr %7, align 8, !tbaa !99
  %28 = getelementptr inbounds nuw %struct.VVCCabacState, ptr %27, i32 0, i32 0
  %29 = getelementptr inbounds [2 x i16], ptr %28, i64 0, i64 0
  %30 = load i16, ptr %29, align 2, !tbaa !62
  %31 = zext i16 %30 to i32
  %32 = shl i32 %31, 4
  %33 = add nsw i32 %26, %32
  store i32 %33, ptr %9, align 4, !tbaa !9
  call void @llvm.lifetime.start.p0(i64 4, ptr %10) #9
  %34 = load i32, ptr %9, align 4, !tbaa !9
  %35 = ashr i32 %34, 14
  store i32 %35, ptr %10, align 4, !tbaa !9
  call void @llvm.lifetime.start.p0(i64 4, ptr %11) #9
  %36 = load i32, ptr %8, align 4, !tbaa !9
  %37 = load i32, ptr %10, align 4, !tbaa !9
  %38 = icmp ne i32 %37, 0
  br i1 %38, label %39, label %42

39:                                               ; preds = %3
  %40 = load i32, ptr %9, align 4, !tbaa !9
  %41 = sub nsw i32 32767, %40
  br label %44

42:                                               ; preds = %3
  %43 = load i32, ptr %9, align 4, !tbaa !9
  br label %44

44:                                               ; preds = %42, %39
  %45 = phi i32 [ %41, %39 ], [ %43, %42 ]
  %46 = ashr i32 %45, 9
  %47 = mul nsw i32 %36, %46
  %48 = ashr i32 %47, 1
  %49 = add nsw i32 %48, 4
  store i32 %49, ptr %11, align 4, !tbaa !9
  call void @llvm.lifetime.start.p0(i64 4, ptr %12) #9
  call void @llvm.lifetime.start.p0(i64 4, ptr %13) #9
  %50 = load i32, ptr %11, align 4, !tbaa !9
  %51 = load ptr, ptr %4, align 8, !tbaa !104
  %52 = getelementptr inbounds nuw %struct.CABACContext, ptr %51, i32 0, i32 1
  %53 = load i32, ptr %52, align 4, !tbaa !106
  %54 = sub nsw i32 %53, %50
  store i32 %54, ptr %52, align 4, !tbaa !106
  %55 = load ptr, ptr %4, align 8, !tbaa !104
  %56 = getelementptr inbounds nuw %struct.CABACContext, ptr %55, i32 0, i32 1
  %57 = load i32, ptr %56, align 4, !tbaa !106
  %58 = shl i32 %57, 17
  %59 = load ptr, ptr %4, align 8, !tbaa !104
  %60 = getelementptr inbounds nuw %struct.CABACContext, ptr %59, i32 0, i32 0
  %61 = load i32, ptr %60, align 8, !tbaa !108
  %62 = sub nsw i32 %58, %61
  %63 = ashr i32 %62, 31
  store i32 %63, ptr %13, align 4, !tbaa !9
  %64 = load ptr, ptr %4, align 8, !tbaa !104
  %65 = getelementptr inbounds nuw %struct.CABACContext, ptr %64, i32 0, i32 1
  %66 = load i32, ptr %65, align 4, !tbaa !106
  %67 = shl i32 %66, 17
  %68 = load i32, ptr %13, align 4, !tbaa !9
  %69 = and i32 %67, %68
  %70 = load ptr, ptr %4, align 8, !tbaa !104
  %71 = getelementptr inbounds nuw %struct.CABACContext, ptr %70, i32 0, i32 0
  %72 = load i32, ptr %71, align 8, !tbaa !108
  %73 = sub nsw i32 %72, %69
  store i32 %73, ptr %71, align 8, !tbaa !108
  %74 = load i32, ptr %11, align 4, !tbaa !9
  %75 = load ptr, ptr %4, align 8, !tbaa !104
  %76 = getelementptr inbounds nuw %struct.CABACContext, ptr %75, i32 0, i32 1
  %77 = load i32, ptr %76, align 4, !tbaa !106
  %78 = sub nsw i32 %74, %77
  %79 = load i32, ptr %13, align 4, !tbaa !9
  %80 = and i32 %78, %79
  %81 = load ptr, ptr %4, align 8, !tbaa !104
  %82 = getelementptr inbounds nuw %struct.CABACContext, ptr %81, i32 0, i32 1
  %83 = load i32, ptr %82, align 4, !tbaa !106
  %84 = add nsw i32 %83, %80
  store i32 %84, ptr %82, align 4, !tbaa !106
  %85 = load i32, ptr %10, align 4, !tbaa !9
  %86 = load i32, ptr %13, align 4, !tbaa !9
  %87 = and i32 %86, 1
  %88 = xor i32 %85, %87
  store i32 %88, ptr %12, align 4, !tbaa !9
  %89 = load ptr, ptr %4, align 8, !tbaa !104
  %90 = getelementptr inbounds nuw %struct.CABACContext, ptr %89, i32 0, i32 1
  %91 = load i32, ptr %90, align 4, !tbaa !106
  %92 = sext i32 %91 to i64
  %93 = getelementptr inbounds i8, ptr @ff_h264_cabac_tables, i64 %92
  %94 = load i8, ptr %93, align 1, !tbaa !101
  %95 = zext i8 %94 to i32
  store i32 %95, ptr %13, align 4, !tbaa !9
  %96 = load i32, ptr %13, align 4, !tbaa !9
  %97 = load ptr, ptr %4, align 8, !tbaa !104
  %98 = getelementptr inbounds nuw %struct.CABACContext, ptr %97, i32 0, i32 1
  %99 = load i32, ptr %98, align 4, !tbaa !106
  %100 = shl i32 %99, %96
  store i32 %100, ptr %98, align 4, !tbaa !106
  %101 = load i32, ptr %13, align 4, !tbaa !9
  %102 = load ptr, ptr %4, align 8, !tbaa !104
  %103 = getelementptr inbounds nuw %struct.CABACContext, ptr %102, i32 0, i32 0
  %104 = load i32, ptr %103, align 8, !tbaa !108
  %105 = shl i32 %104, %101
  store i32 %105, ptr %103, align 8, !tbaa !108
  %106 = load ptr, ptr %4, align 8, !tbaa !104
  %107 = getelementptr inbounds nuw %struct.CABACContext, ptr %106, i32 0, i32 0
  %108 = load i32, ptr %107, align 8, !tbaa !108
  %109 = and i32 %108, 65535
  %110 = icmp ne i32 %109, 0
  br i1 %110, label %113, label %111

111:                                              ; preds = %44
  %112 = load ptr, ptr %4, align 8, !tbaa !104
  call void @vvc_refill2(ptr noundef %112)
  br label %113

113:                                              ; preds = %111, %44
  %114 = load ptr, ptr %7, align 8, !tbaa !99
  %115 = getelementptr inbounds nuw %struct.VVCCabacState, ptr %114, i32 0, i32 0
  %116 = getelementptr inbounds [2 x i16], ptr %115, i64 0, i64 0
  %117 = load i16, ptr %116, align 2, !tbaa !62
  %118 = zext i16 %117 to i32
  %119 = load ptr, ptr %7, align 8, !tbaa !99
  %120 = getelementptr inbounds nuw %struct.VVCCabacState, ptr %119, i32 0, i32 0
  %121 = getelementptr inbounds [2 x i16], ptr %120, i64 0, i64 0
  %122 = load i16, ptr %121, align 2, !tbaa !62
  %123 = zext i16 %122 to i32
  %124 = load ptr, ptr %7, align 8, !tbaa !99
  %125 = getelementptr inbounds nuw %struct.VVCCabacState, ptr %124, i32 0, i32 1
  %126 = getelementptr inbounds [2 x i8], ptr %125, i64 0, i64 0
  %127 = load i8, ptr %126, align 2, !tbaa !101
  %128 = zext i8 %127 to i32
  %129 = ashr i32 %123, %128
  %130 = sub nsw i32 %118, %129
  %131 = load i32, ptr %12, align 4, !tbaa !9
  %132 = mul nsw i32 1023, %131
  %133 = load ptr, ptr %7, align 8, !tbaa !99
  %134 = getelementptr inbounds nuw %struct.VVCCabacState, ptr %133, i32 0, i32 1
  %135 = getelementptr inbounds [2 x i8], ptr %134, i64 0, i64 0
  %136 = load i8, ptr %135, align 2, !tbaa !101
  %137 = zext i8 %136 to i32
  %138 = ashr i32 %132, %137
  %139 = add nsw i32 %130, %138
  %140 = trunc i32 %139 to i16
  %141 = load ptr, ptr %7, align 8, !tbaa !99
  %142 = getelementptr inbounds nuw %struct.VVCCabacState, ptr %141, i32 0, i32 0
  %143 = getelementptr inbounds [2 x i16], ptr %142, i64 0, i64 0
  store i16 %140, ptr %143, align 2, !tbaa !62
  %144 = load ptr, ptr %7, align 8, !tbaa !99
  %145 = getelementptr inbounds nuw %struct.VVCCabacState, ptr %144, i32 0, i32 0
  %146 = getelementptr inbounds [2 x i16], ptr %145, i64 0, i64 1
  %147 = load i16, ptr %146, align 2, !tbaa !62
  %148 = zext i16 %147 to i32
  %149 = load ptr, ptr %7, align 8, !tbaa !99
  %150 = getelementptr inbounds nuw %struct.VVCCabacState, ptr %149, i32 0, i32 0
  %151 = getelementptr inbounds [2 x i16], ptr %150, i64 0, i64 1
  %152 = load i16, ptr %151, align 2, !tbaa !62
  %153 = zext i16 %152 to i32
  %154 = load ptr, ptr %7, align 8, !tbaa !99
  %155 = getelementptr inbounds nuw %struct.VVCCabacState, ptr %154, i32 0, i32 1
  %156 = getelementptr inbounds [2 x i8], ptr %155, i64 0, i64 1
  %157 = load i8, ptr %156, align 1, !tbaa !101
  %158 = zext i8 %157 to i32
  %159 = ashr i32 %153, %158
  %160 = sub nsw i32 %148, %159
  %161 = load i32, ptr %12, align 4, !tbaa !9
  %162 = mul nsw i32 16383, %161
  %163 = load ptr, ptr %7, align 8, !tbaa !99
  %164 = getelementptr inbounds nuw %struct.VVCCabacState, ptr %163, i32 0, i32 1
  %165 = getelementptr inbounds [2 x i8], ptr %164, i64 0, i64 1
  %166 = load i8, ptr %165, align 1, !tbaa !101
  %167 = zext i8 %166 to i32
  %168 = ashr i32 %162, %167
  %169 = add nsw i32 %160, %168
  %170 = trunc i32 %169 to i16
  %171 = load ptr, ptr %7, align 8, !tbaa !99
  %172 = getelementptr inbounds nuw %struct.VVCCabacState, ptr %171, i32 0, i32 0
  %173 = getelementptr inbounds [2 x i16], ptr %172, i64 0, i64 1
  store i16 %170, ptr %173, align 2, !tbaa !62
  %174 = load i32, ptr %12, align 4, !tbaa !9
  call void @llvm.lifetime.end.p0(i64 4, ptr %13) #9
  call void @llvm.lifetime.end.p0(i64 4, ptr %12) #9
  call void @llvm.lifetime.end.p0(i64 4, ptr %11) #9
  call void @llvm.lifetime.end.p0(i64 4, ptr %10) #9
  call void @llvm.lifetime.end.p0(i64 4, ptr %9) #9
  call void @llvm.lifetime.end.p0(i64 4, ptr %8) #9
  call void @llvm.lifetime.end.p0(i64 8, ptr %7) #9
  ret i32 %174
}

; Function Attrs: nounwind uwtable
define i32 @ff_vvc_abs_mvd_greater1_flag(ptr noundef %0) #0 {
  %2 = alloca ptr, align 8
  store ptr %0, ptr %2, align 8, !tbaa !4
  %3 = load ptr, ptr %2, align 8, !tbaa !4
  %4 = getelementptr inbounds nuw %struct.VVCLocalContext, ptr %3, i32 0, i32 25
  %5 = load ptr, ptr %4, align 16, !tbaa !71
  %6 = getelementptr inbounds nuw %struct.EntryPoint, ptr %5, i32 0, i32 4
  %7 = load ptr, ptr %2, align 8, !tbaa !4
  %8 = getelementptr inbounds nuw %struct.VVCLocalContext, ptr %7, i32 0, i32 25
  %9 = load ptr, ptr %8, align 16, !tbaa !71
  %10 = getelementptr inbounds nuw %struct.EntryPoint, ptr %9, i32 0, i32 3
  %11 = getelementptr inbounds [378 x %struct.VVCCabacState], ptr %10, i64 0, i64 0
  %12 = call i32 @vvc_get_cabac(ptr noundef %6, ptr noundef %11, i32 noundef 132)
  ret i32 %12
}